target datalayout = "e-m:e-p270:32:32-p271:32:32-p272:64:64-i64:64-i128:128-f80:128-n8:16:32:64-S128"
target triple = "x86_64-pc-linux-gnu"

%class.MarkedFileReader = type { %class.FileReader, i64 }
%class.FileReader = type { ptr, ptr }
%"class.DwarfFile::MarkedDwarfFileReader" = type { %class.MarkedFileReader, i64, i64 }
%"class.DwarfFile::LineNumberProgram" = type <{ ptr, %"class.DwarfFile::MarkedDwarfFileReader", %"struct.DwarfFile::LineNumberProgram::LineNumberProgramHeader", ptr, i32, [4 x i8], i64, i8, [7 x i8] }>
%"struct.DwarfFile::LineNumberProgram::LineNumberProgramHeader" = type { i32, i16, i32, i8, i8, i8, i8, i8, i8, [12 x i8], i64 }
%"struct.DwarfFile::LineNumberProgram::LineNumberProgramState" = type { i64, i32, i32, i32, i32, i8, i8, i8, i8, i8, i32, i32, i16, i8, i8, i8, i8, i8, i8 }

; Function Attrs: mustprogress nounwind uwtable
define hidden void @_ZN9DwarfFile17LineNumberProgram22LineNumberProgramState18set_index_registerEjRKNS0_23LineNumberProgramHeaderE(ptr noundef nonnull align 8 dereferenceable(48) %0, i32 noundef %1, ptr noundef nonnull align 8 dereferenceable(40) %2) #1 align 2 {
  %4 = alloca ptr, align 8
  %5 = alloca i32, align 4
  %6 = alloca ptr, align 8
  store ptr %0, ptr %4, align 8
  store i32 %1, ptr %5, align 4
  store ptr %2, ptr %6, align 8
  %7 = load ptr, ptr %4, align 8
  %8 = getelementptr inbounds %"struct.DwarfFile::LineNumberProgram::LineNumberProgramState", ptr %7, i32 0, i32 1
  %9 = load i32, ptr %8, align 8
  %10 = load i32, ptr %5, align 4
  %11 = add i32 %9, %10
  %12 = load ptr, ptr %6, align 8
  %13 = getelementptr inbounds %"struct.DwarfFile::LineNumberProgram::LineNumberProgramHeader", ptr %12, i32 0, i32 4
  %14 = load i8, ptr %13, align 1
  %15 = zext i8 %14 to i32
  %16 = urem i32 %11, %15
  %17 = getelementptr inbounds %"struct.DwarfFile::LineNumberProgram::LineNumberProgramState", ptr %7, i32 0, i32 1
  store i32 %16, ptr %17, align 8
  ret void
}

; Function Attrs: mustprogress nounwind uwtable
define hidden void @_ZN9DwarfFile17LineNumberProgram22LineNumberProgramState23add_to_address_registerEjRKNS0_23LineNumberProgramHeaderE(ptr noundef nonnull align 8 dereferenceable(48) %0, i32 noundef %1, ptr noundef nonnull align 8 dereferenceable(40) %2) #1 align 2 {
  %4 = alloca ptr, align 8
  %5 = alloca i32, align 4
  %6 = alloca ptr, align 8
  store ptr %0, ptr %4, align 8
  store i32 %1, ptr %5, align 4
  store ptr %2, ptr %6, align 8
  %7 = load ptr, ptr %4, align 8
  %8 = getelementptr inbounds %"struct.DwarfFile::LineNumberProgram::LineNumberProgramState", ptr %7, i32 0, i32 12
  %9 = load i16, ptr %8, align 8
  %10 = zext i16 %9 to i32
  %11 = icmp eq i32 %10, 2
  br i1 %11, label %17, label %12

12:                                               ; preds = %3
  %13 = getelementptr inbounds %"struct.DwarfFile::LineNumberProgram::LineNumberProgramState", ptr %7, i32 0, i32 12
  %14 = load i16, ptr %13, align 8
  %15 = zext i16 %14 to i32
  %16 = icmp eq i32 %15, 3
  br i1 %16, label %17, label %28

17:                                               ; preds = %12, %3
  %18 = load i32, ptr %5, align 4
  %19 = load ptr, ptr %6, align 8
  %20 = getelementptr inbounds %"struct.DwarfFile::LineNumberProgram::LineNumberProgramHeader", ptr %19, i32 0, i32 3
  %21 = load i8, ptr %20, align 4
  %22 = zext i8 %21 to i32
  %23 = mul i32 %18, %22
  %24 = zext i32 %23 to i64
  %25 = getelementptr inbounds %"struct.DwarfFile::LineNumberProgram::LineNumberProgramState", ptr %7, i32 0, i32 0
  %26 = load i64, ptr %25, align 8
  %27 = add i64 %26, %24
  store i64 %27, ptr %25, align 8
  br label %53

28:                                               ; preds = %12
  %29 = getelementptr inbounds %"struct.DwarfFile::LineNumberProgram::LineNumberProgramState", ptr %7, i32 0, i32 12
  %30 = load i16, ptr %29, align 8
  %31 = zext i16 %30 to i32
  %32 = icmp eq i32 %31, 4
  br i1 %32, label %33, label %52

33:                                               ; preds = %28
  %34 = load ptr, ptr %6, align 8
  %35 = getelementptr inbounds %"struct.DwarfFile::LineNumberProgram::LineNumberProgramHeader", ptr %34, i32 0, i32 3
  %36 = load i8, ptr %35, align 4
  %37 = zext i8 %36 to i32
  %38 = getelementptr inbounds %"struct.DwarfFile::LineNumberProgram::LineNumberProgramState", ptr %7, i32 0, i32 1
  %39 = load i32, ptr %38, align 8
  %40 = load i32, ptr %5, align 4
  %41 = add i32 %39, %40
  %42 = load ptr, ptr %6, align 8
  %43 = getelementptr inbounds %"struct.DwarfFile::LineNumberProgram::LineNumberProgramHeader", ptr %42, i32 0, i32 4
  %44 = load i8, ptr %43, align 1
  %45 = zext i8 %44 to i32
  %46 = udiv i32 %41, %45
  %47 = mul i32 %37, %46
  %48 = zext i32 %47 to i64
  %49 = getelementptr inbounds %"struct.DwarfFile::LineNumberProgram::LineNumberProgramState", ptr %7, i32 0, i32 0
  %50 = load i64, ptr %49, align 8
  %51 = add i64 %50, %48
  store i64 %51, ptr %49, align 8
  br label %52

52:                                               ; preds = %33, %28
  br label %53

53:                                               ; preds = %52, %17
  ret void
}

; Function Attrs: mustprogress nounwind uwtable
define hidden void @_ZN9DwarfFile17LineNumberProgram20apply_special_opcodeEh(ptr noundef nonnull align 8 dereferenceable(113) %0, i8 noundef zeroext %1) #1 align 2 {
  %3 = alloca ptr, align 8
  %4 = alloca i8, align 1
  %5 = alloca i64, align 8
  %6 = alloca i32, align 4
  %7 = alloca i8, align 1
  %8 = alloca i8, align 1
  store ptr %0, ptr %3, align 8
  store i8 %1, ptr %4, align 1
  %9 = load ptr, ptr %3, align 8
  %10 = getelementptr inbounds %"class.DwarfFile::LineNumberProgram", ptr %9, i32 0, i32 3
  %11 = load ptr, ptr %10, align 8
  %12 = getelementptr inbounds %"struct.DwarfFile::LineNumberProgram::LineNumberProgramState", ptr %11, i32 0, i32 0
  %13 = load i64, ptr %12, align 8
  store i64 %13, ptr %5, align 8
  %14 = getelementptr inbounds %"class.DwarfFile::LineNumberProgram", ptr %9, i32 0, i32 3
  %15 = load ptr, ptr %14, align 8
  %16 = getelementptr inbounds %"struct.DwarfFile::LineNumberProgram::LineNumberProgramState", ptr %15, i32 0, i32 3
  %17 = load i32, ptr %16, align 8
  store i32 %17, ptr %6, align 4
  %18 = load i8, ptr %4, align 1
  %19 = zext i8 %18 to i32
  %20 = getelementptr inbounds %"class.DwarfFile::LineNumberProgram", ptr %9, i32 0, i32 2
  %21 = getelementptr inbounds %"struct.DwarfFile::LineNumberProgram::LineNumberProgramHeader", ptr %20, i32 0, i32 8
  %22 = load i8, ptr %21, align 1
  %23 = zext i8 %22 to i32
  %24 = sub nsw i32 %19, %23
  %25 = trunc i32 %24 to i8
  store i8 %25, ptr %7, align 1
  %26 = load i8, ptr %7, align 1
  %27 = zext i8 %26 to i32
  %28 = getelementptr inbounds %"class.DwarfFile::LineNumberProgram", ptr %9, i32 0, i32 2
  %29 = getelementptr inbounds %"struct.DwarfFile::LineNumberProgram::LineNumberProgramHeader", ptr %28, i32 0, i32 7
  %30 = load i8, ptr %29, align 8
  %31 = zext i8 %30 to i32
  %32 = sdiv i32 %27, %31
  %33 = trunc i32 %32 to i8
  store i8 %33, ptr %8, align 1
  %34 = getelementptr inbounds %"class.DwarfFile::LineNumberProgram", ptr %9, i32 0, i32 3
  %35 = load ptr, ptr %34, align 8
  %36 = load i8, ptr %8, align 1
  %37 = zext i8 %36 to i32
  %38 = getelementptr inbounds %"class.DwarfFile::LineNumberProgram", ptr %9, i32 0, i32 2
  call void @_ZN9DwarfFile17LineNumberProgram22LineNumberProgramState23add_to_address_registerEjRKNS0_23LineNumberProgramHeaderE(ptr noundef nonnull align 8 dereferenceable(48) %35, i32 noundef %37, ptr noundef nonnull align 8 dereferenceable(40) %38)
  %39 = getelementptr inbounds %"class.DwarfFile::LineNumberProgram", ptr %9, i32 0, i32 3
  %40 = load ptr, ptr %39, align 8
  %41 = getelementptr inbounds %"struct.DwarfFile::LineNumberProgram::LineNumberProgramState", ptr %40, i32 0, i32 12
  %42 = load i16, ptr %41, align 8
  %43 = zext i16 %42 to i32
  %44 = icmp eq i32 %43, 4
  br i1 %44, label %45, label %54

45:                                               ; preds = %2
  %46 = getelementptr inbounds %"class.DwarfFile::LineNumberProgram", ptr %9, i32 0, i32 3
  %47 = load ptr, ptr %46, align 8
  %48 = load i8, ptr %8, align 1
  %49 = zext i8 %48 to i32
  %50 = getelementptr inbounds %"class.DwarfFile::LineNumberProgram", ptr %9, i32 0, i32 2
  call void @_ZN9DwarfFile17LineNumberProgram22LineNumberProgramState18set_index_registerEjRKNS0_23LineNumberProgramHeaderE(ptr noundef nonnull align 8 dereferenceable(48) %47, i32 noundef %49, ptr noundef nonnull align 8 dereferenceable(40) %50)
  %51 = getelementptr inbounds %"class.DwarfFile::LineNumberProgram", ptr %9, i32 0, i32 3
  %52 = load ptr, ptr %51, align 8
  %53 = getelementptr inbounds %"struct.DwarfFile::LineNumberProgram::LineNumberProgramState", ptr %52, i32 0, i32 11
  store i32 0, ptr %53, align 4
  br label %54

54:                                               ; preds = %45, %2
  %55 = getelementptr inbounds %"class.DwarfFile::LineNumberProgram", ptr %9, i32 0, i32 2
  %56 = getelementptr inbounds %"struct.DwarfFile::LineNumberProgram::LineNumberProgramHeader", ptr %55, i32 0, i32 6
  %57 = load i8, ptr %56, align 1
  %58 = sext i8 %57 to i32
  %59 = load i8, ptr %7, align 1
  %60 = zext i8 %59 to i32
  %61 = getelementptr inbounds %"class.DwarfFile::LineNumberProgram", ptr %9, i32 0, i32 2
  %62 = getelementptr inbounds %"struct.DwarfFile::LineNumberProgram::LineNumberProgramHeader", ptr %61, i32 0, i32 7
  %63 = load i8, ptr %62, align 8
  %64 = zext i8 %63 to i32
  %65 = srem i32 %60, %64
  %66 = add nsw i32 %58, %65
  %67 = getelementptr inbounds %"class.DwarfFile::LineNumberProgram", ptr %9, i32 0, i32 3
  %68 = load ptr, ptr %67, align 8
  %69 = getelementptr inbounds %"struct.DwarfFile::LineNumberProgram::LineNumberProgramState", ptr %68, i32 0, i32 3
  %70 = load i32, ptr %69, align 8
  %71 = add i32 %70, %66
  store i32 %71, ptr %69, align 8
  %72 = getelementptr inbounds %"class.DwarfFile::LineNumberProgram", ptr %9, i32 0, i32 3
  %73 = load ptr, ptr %72, align 8
  %74 = getelementptr inbounds %"struct.DwarfFile::LineNumberProgram::LineNumberProgramState", ptr %73, i32 0, i32 14
  store i8 1, ptr %74, align 1
  %75 = getelementptr inbounds %"class.DwarfFile::LineNumberProgram", ptr %9, i32 0, i32 3
  %76 = load ptr, ptr %75, align 8
  %77 = getelementptr inbounds %"struct.DwarfFile::LineNumberProgram::LineNumberProgramState", ptr %76, i32 0, i32 6
  store i8 0, ptr %77, align 1
  %78 = getelementptr inbounds %"class.DwarfFile::LineNumberProgram", ptr %9, i32 0, i32 3
  %79 = load ptr, ptr %78, align 8
  %80 = getelementptr inbounds %"struct.DwarfFile::LineNumberProgram::LineNumberProgramState", ptr %79, i32 0, i32 8
  store i8 0, ptr %80, align 1
  %81 = getelementptr inbounds %"class.DwarfFile::LineNumberProgram", ptr %9, i32 0, i32 3
  %82 = load ptr, ptr %81, align 8
  %83 = getelementptr inbounds %"struct.DwarfFile::LineNumberProgram::LineNumberProgramState", ptr %82, i32 0, i32 9
  store i8 0, ptr %83, align 4
  ret void
}