; Function Attrs: mustprogress nofree norecurse nosync nounwind willreturn memory(readwrite, inaccessiblemem: none) uwtable
define hidden void @_ZN9DwarfFile17LineNumberProgram20apply_special_opcodeEh(ptr nocapture noundef nonnull readonly align 8 dereferenceable(113) %0, i8 noundef zeroext %1) local_unnamed_addr #12 align 2 {
  %3 = getelementptr inbounds i8, ptr %0, i64 88
  %4 = load ptr, ptr %3, align 8
  %5 = getelementptr inbounds i8, ptr %0, i64 65
  %6 = load i8, ptr %5, align 1
  %7 = sub i8 %1, %6
  %8 = getelementptr inbounds i8, ptr %0, i64 64
  %9 = load i8, ptr %8, align 8
  %10 = udiv i8 %7, %9
  %11 = zext i8 %10 to i32
  %12 = getelementptr inbounds i8, ptr %4, i64 40
  %13 = load i16, ptr %12, align 8
  switch i16 %13, label %_ZN9DwarfFile17LineNumberProgram22LineNumberProgramState23add_to_address_registerEjRKNS0_23LineNumberProgramHeaderE.exit.thread [
    i16 2, label %14
    i16 3, label %14
    i16 4, label %19
  ]

14:                                               ; preds = %2, %2
  %15 = getelementptr inbounds i8, ptr %0, i64 60
  %16 = load i8, ptr %15, align 4
  %17 = zext i8 %16 to i32
  %18 = mul nuw nsw i32 %17, %11
  br label %_ZN9DwarfFile17LineNumberProgram22LineNumberProgramState23add_to_address_registerEjRKNS0_23LineNumberProgramHeaderE.exit

19:                                               ; preds = %2
  %20 = getelementptr inbounds i8, ptr %0, i64 60
  %21 = load i8, ptr %20, align 4
  %22 = zext i8 %21 to i32
  %23 = getelementptr inbounds i8, ptr %4, i64 8
  %24 = load i32, ptr %23, align 8
  %25 = add i32 %24, %11
  %26 = getelementptr inbounds i8, ptr %0, i64 61
  %27 = load i8, ptr %26, align 1
  %28 = zext i8 %27 to i32
  %29 = udiv i32 %25, %28
  %30 = mul i32 %29, %22
  br label %_ZN9DwarfFile17LineNumberProgram22LineNumberProgramState23add_to_address_registerEjRKNS0_23LineNumberProgramHeaderE.exit

_ZN9DwarfFile17LineNumberProgram22LineNumberProgramState23add_to_address_registerEjRKNS0_23LineNumberProgramHeaderE.exit: ; preds = %14, %19
  %.sink.i = phi i32 [ %30, %19 ], [ %18, %14 ]
  %31 = zext i32 %.sink.i to i64
  %32 = load i64, ptr %4, align 8
  %33 = add i64 %32, %31
  store i64 %33, ptr %4, align 8
  %.pre = load ptr, ptr %3, align 8
  %.phi.trans.insert = getelementptr inbounds i8, ptr %.pre, i64 40
  %.pre5 = load i16, ptr %.phi.trans.insert, align 8
  %34 = icmp eq i16 %.pre5, 4
  br i1 %34, label %35, label %_ZN9DwarfFile17LineNumberProgram22LineNumberProgramState23add_to_address_registerEjRKNS0_23LineNumberProgramHeaderE.exit.thread

35:                                               ; preds = %_ZN9DwarfFile17LineNumberProgram22LineNumberProgramState23add_to_address_registerEjRKNS0_23LineNumberProgramHeaderE.exit
  %36 = getelementptr inbounds i8, ptr %.pre, i64 8
  %37 = load i32, ptr %36, align 8
  %38 = add i32 %37, %11
  %39 = getelementptr inbounds i8, ptr %0, i64 61
  %40 = load i8, ptr %39, align 1
  %41 = zext i8 %40 to i32
  %42 = urem i32 %38, %41
  store i32 %42, ptr %36, align 8
  %43 = load ptr, ptr %3, align 8
  %44 = getelementptr inbounds i8, ptr %43, i64 36
  store i32 0, ptr %44, align 4
  %.pre6 = load ptr, ptr %3, align 8
  br label %_ZN9DwarfFile17LineNumberProgram22LineNumberProgramState23add_to_address_registerEjRKNS0_23LineNumberProgramHeaderE.exit.thread

_ZN9DwarfFile17LineNumberProgram22LineNumberProgramState23add_to_address_registerEjRKNS0_23LineNumberProgramHeaderE.exit.thread: ; preds = %2, %35, %_ZN9DwarfFile17LineNumberProgram22LineNumberProgramState23add_to_address_registerEjRKNS0_23LineNumberProgramHeaderE.exit
  %45 = phi ptr [ %.pre6, %35 ], [ %.pre, %_ZN9DwarfFile17LineNumberProgram22LineNumberProgramState23add_to_address_registerEjRKNS0_23LineNumberProgramHeaderE.exit ], [ %4, %2 ]
  %46 = getelementptr inbounds i8, ptr %0, i64 63
  %47 = load i8, ptr %46, align 1
  %48 = sext i8 %47 to i32
  %49 = load i8, ptr %8, align 8
  %50 = urem i8 %7, %49
  %51 = zext i8 %50 to i32
  %52 = add nsw i32 %51, %48
  %53 = getelementptr inbounds i8, ptr %45, i64 16
  %54 = load i32, ptr %53, align 8
  %55 = add i32 %52, %54
  store i32 %55, ptr %53, align 8
  %56 = load ptr, ptr %3, align 8
  %57 = getelementptr inbounds i8, ptr %56, i64 43
  store i8 1, ptr %57, align 1
  %58 = load ptr, ptr %3, align 8
  %59 = getelementptr inbounds i8, ptr %58, i64 25
  store i8 0, ptr %59, align 1
  %60 = load ptr, ptr %3, align 8
  %61 = getelementptr inbounds i8, ptr %60, i64 27
  store i8 0, ptr %61, align 1
  %62 = load ptr, ptr %3, align 8
  %63 = getelementptr inbounds i8, ptr %62, i64 28
  store i8 0, ptr %63, align 4
  ret void
}